; Function Attrs: mustprogress uwtable
define void @_ZN6casadi15CvodesInterface12cvodes_errorEPKci(ptr noundef %0, i32 noundef %1) local_unnamed_addr #3 align 2 personality ptr @__gxx_personality_v0 {
  %3 = alloca %"class.std::__cxx11::basic_stringstream", align 8
  %4 = alloca %"class.std::__cxx11::basic_string", align 8
  %5 = alloca %"class.std::__cxx11::basic_string", align 8
  %6 = alloca %"class.std::__cxx11::basic_string", align 8
  %7 = alloca %"class.std::__cxx11::basic_string", align 8
  %8 = alloca %"class.std::allocator.0", align 1
  %9 = alloca %"class.std::__cxx11::basic_string", align 8
  %10 = alloca %"class.std::__cxx11::basic_string", align 8
  %11 = alloca %"class.std::vector", align 8
  %12 = icmp sgt i32 %1, -1
  br i1 %12, label %13, label %14

13:                                               ; preds = %2
  ret void

14:                                               ; preds = %2
  %15 = sext i32 %1 to i64
  %16 = tail call ptr @CVodeGetReturnFlagName(i64 noundef %15)
  call void @_ZNSt7__cxx1118basic_stringstreamIcSt11char_traitsIcESaIcEEC1Ev(ptr noundef nonnull align 8 dereferenceable(128) %3)
  %17 = getelementptr inbounds i8, ptr %3, i64 16
  %18 = invoke noundef nonnull align 8 dereferenceable(8) ptr @_ZStlsISt11char_traitsIcEERSt13basic_ostreamIcT_ES5_PKc(ptr noundef nonnull align 8 dereferenceable(8) %17, ptr noundef %0)
          to label %19 unwind label %35

19:                                               ; preds = %14
  %20 = invoke noundef nonnull align 8 dereferenceable(8) ptr @_ZStlsISt11char_traitsIcEERSt13basic_ostreamIcT_ES5_PKc(ptr noundef nonnull align 8 dereferenceable(8) %18, ptr noundef nonnull @.str.92)
          to label %21 unwind label %35

21:                                               ; preds = %19
  %22 = invoke noundef nonnull align 8 dereferenceable(8) ptr @_ZStlsISt11char_traitsIcEERSt13basic_ostreamIcT_ES5_PKc(ptr noundef nonnull align 8 dereferenceable(8) %20, ptr noundef %16)
          to label %23 unwind label %35

23:                                               ; preds = %21
  %24 = invoke noundef nonnull align 8 dereferenceable(8) ptr @_ZStlsISt11char_traitsIcEERSt13basic_ostreamIcT_ES5_PKc(ptr noundef nonnull align 8 dereferenceable(8) %22, ptr noundef nonnull @.str.93)
          to label %25 unwind label %35

25:                                               ; preds = %23
  call void @free(ptr noundef %16) #20
  %26 = call ptr @__cxa_allocate_exception(i64 40) #20
  call void @_ZNSaIcEC1Ev(ptr noundef nonnull align 1 dereferenceable(1) %8) #20
  invoke void @_ZNSt7__cxx1112basic_stringIcSt11char_traitsIcESaIcEEC2IS3_EEPKcRKS3_(ptr noundef nonnull align 8 dereferenceable(32) %7, ptr noundef nonnull @.str.94, ptr noundef nonnull align 1 dereferenceable(1) %8)
          to label %27 unwind label %.thread

27:                                               ; preds = %25
  invoke void @_ZN6casadi9trim_pathERKNSt7__cxx1112basic_stringIcSt11char_traitsIcESaIcEEE(ptr dead_on_unwind nonnull writable sret(%"class.std::__cxx11::basic_string") align 8 %6, ptr noundef nonnull align 8 dereferenceable(32) %7)
          to label %28 unwind label %38

28:                                               ; preds = %27
  %29 = invoke noundef nonnull align 8 dereferenceable(32) ptr @_ZNSt7__cxx1112basic_stringIcSt11char_traitsIcESaIcEE6appendEPKc(ptr noundef nonnull align 8 dereferenceable(32) %6, ptr noundef nonnull @.str.25)
          to label %30 unwind label %40

30:                                               ; preds = %28
  call void @_ZNSt7__cxx1112basic_stringIcSt11char_traitsIcESaIcEEC1EOS4_(ptr noundef nonnull align 8 dereferenceable(32) %5, ptr noundef nonnull align 8 dereferenceable(32) %29) #20
  invoke void @_ZNKSt7__cxx1118basic_stringstreamIcSt11char_traitsIcESaIcEE3strEv(ptr dead_on_unwind nonnull writable sret(%"class.std::__cxx11::basic_string") align 8 %10, ptr noundef nonnull align 8 dereferenceable(128) %3)
          to label %31 unwind label %42

31:                                               ; preds = %30
  call void @llvm.memset.p0.i64(ptr noundef nonnull align 8 dereferenceable(24) %11, i8 0, i64 24, i1 false), !alias.scope !21
  invoke void @_ZN6casadi6fmtstrERKNSt7__cxx1112basic_stringIcSt11char_traitsIcESaIcEEERKSt6vectorIS5_SaIS5_EE(ptr dead_on_unwind nonnull writable sret(%"class.std::__cxx11::basic_string") align 8 %9, ptr noundef nonnull align 8 dereferenceable(32) %10, ptr noundef nonnull align 8 dereferenceable(24) %11)
          to label %32 unwind label %44

32:                                               ; preds = %31
  invoke void @_ZStplIcSt11char_traitsIcESaIcEENSt7__cxx1112basic_stringIT_T0_T1_EEOS8_S9_(ptr dead_on_unwind nonnull writable sret(%"class.std::__cxx11::basic_string") align 8 %4, ptr noundef nonnull align 8 dereferenceable(32) %5, ptr noundef nonnull align 8 dereferenceable(32) %9)
          to label %33 unwind label %46

33:                                               ; preds = %32
  invoke void @_ZN6casadi15CasadiExceptionC2ERKNSt7__cxx1112basic_stringIcSt11char_traitsIcESaIcEEE(ptr noundef nonnull align 8 dereferenceable(40) %26, ptr noundef nonnull align 8 dereferenceable(32) %4)
          to label %34 unwind label %48

34:                                               ; preds = %33
  invoke void @__cxa_throw(ptr nonnull %26, ptr nonnull @_ZTIN6casadi15CasadiExceptionE, ptr nonnull @_ZN6casadi15CasadiExceptionD2Ev) #19
          to label %57 unwind label %48

35:                                               ; preds = %23, %21, %19, %14
  %36 = landingpad { ptr, i32 }
          cleanup
  br label %56

.thread:                                          ; preds = %25
  %37 = landingpad { ptr, i32 }
          cleanup
  call void @_ZNSaIcED1Ev(ptr noundef nonnull align 1 dereferenceable(1) %8) #20
  br label %55

38:                                               ; preds = %27
  %39 = landingpad { ptr, i32 }
          cleanup
  br label %54

40:                                               ; preds = %28
  %41 = landingpad { ptr, i32 }
          cleanup
  br label %53

42:                                               ; preds = %30
  %43 = landingpad { ptr, i32 }
          cleanup
  br label %52

44:                                               ; preds = %31
  %45 = landingpad { ptr, i32 }
          cleanup
  br label %51

46:                                               ; preds = %32
  %47 = landingpad { ptr, i32 }
          cleanup
  br label %50

48:                                               ; preds = %34, %33
  %.0 = phi i1 [ false, %34 ], [ true, %33 ]
  %49 = landingpad { ptr, i32 }
          cleanup
  call void @_ZNSt7__cxx1112basic_stringIcSt11char_traitsIcESaIcEED1Ev(ptr noundef nonnull align 8 dereferenceable(32) %4) #20
  br label %50

50:                                               ; preds = %48, %46
  %.pn = phi { ptr, i32 } [ %49, %48 ], [ %47, %46 ]
  %.1 = phi i1 [ %.0, %48 ], [ true, %46 ]
  call void @_ZNSt7__cxx1112basic_stringIcSt11char_traitsIcESaIcEED1Ev(ptr noundef nonnull align 8 dereferenceable(32) %9) #20
  br label %51

51:                                               ; preds = %50, %44
  %.pn.pn = phi { ptr, i32 } [ %.pn, %50 ], [ %45, %44 ]
  %.2 = phi i1 [ %.1, %50 ], [ true, %44 ]
  call void @_ZNSt6vectorINSt7__cxx1112basic_stringIcSt11char_traitsIcESaIcEEESaIS5_EED2Ev(ptr noundef nonnull align 8 dereferenceable(24) %11) #20
  call void @_ZNSt7__cxx1112basic_stringIcSt11char_traitsIcESaIcEED1Ev(ptr noundef nonnull align 8 dereferenceable(32) %10) #20
  br label %52

52:                                               ; preds = %51, %42
  %.pn.pn.pn = phi { ptr, i32 } [ %.pn.pn, %51 ], [ %43, %42 ]
  %.3 = phi i1 [ %.2, %51 ], [ true, %42 ]
  call void @_ZNSt7__cxx1112basic_stringIcSt11char_traitsIcESaIcEED1Ev(ptr noundef nonnull align 8 dereferenceable(32) %5) #20
  br label %53

53:                                               ; preds = %52, %40
  %.pn.pn.pn.pn = phi { ptr, i32 } [ %.pn.pn.pn, %52 ], [ %41, %40 ]
  %.4 = phi i1 [ %.3, %52 ], [ true, %40 ]
  call void @_ZNSt7__cxx1112basic_stringIcSt11char_traitsIcESaIcEED1Ev(ptr noundef nonnull align 8 dereferenceable(32) %6) #20
  br label %54

54:                                               ; preds = %38, %53
  %.pn.pn.pn.pn.pn = phi { ptr, i32 } [ %.pn.pn.pn.pn, %53 ], [ %39, %38 ]
  %.5 = phi i1 [ %.4, %53 ], [ true, %38 ]
  call void @_ZNSt7__cxx1112basic_stringIcSt11char_traitsIcESaIcEED1Ev(ptr noundef nonnull align 8 dereferenceable(32) %7) #20
  call void @_ZNSaIcED1Ev(ptr noundef nonnull align 1 dereferenceable(1) %8) #20
  br i1 %.5, label %55, label %56

55:                                               ; preds = %.thread, %54
  %.pn.pn.pn.pn.pn.pn31 = phi { ptr, i32 } [ %37, %.thread ], [ %.pn.pn.pn.pn.pn, %54 ]
  call void @__cxa_free_exception(ptr %26) #20
  br label %56

56:                                               ; preds = %54, %55, %35
  %.pn.pn.pn.pn.pn.pn.pn = phi { ptr, i32 } [ %.pn.pn.pn.pn.pn.pn31, %55 ], [ %.pn.pn.pn.pn.pn, %54 ], [ %36, %35 ]
  call void @_ZNSt7__cxx1118basic_stringstreamIcSt11char_traitsIcESaIcEED1Ev(ptr noundef nonnull align 8 dereferenceable(128) %3) #20
  resume { ptr, i32 } %.pn.pn.pn.pn.pn.pn.pn

57:                                               ; preds = %34
  unreachable
}